target datalayout = "e-m:e-p270:32:32-p271:32:32-p272:64:64-i64:64-i128:128-f80:128-n8:16:32:64-S128"
target triple = "x86_64-pc-linux-gnu"

%struct._header_field_info = type { ptr, ptr, i32, i32, ptr, i64, ptr, i32, i32, i32, i32, ptr }
%struct._per_sequence_t = type { ptr, i32, i32, ptr }

@hf_per_sequence_of_length = internal global i32 0, align 4
@.str.9 = private unnamed_addr constant [6 x i8] c" item\00", align 1
@.str.10 = private unnamed_addr constant [7 x i8] c" items\00", align 1

; Function Attrs: null_pointer_is_valid sspstrong uwtable
define i32 @dissect_per_sequence_of(ptr noundef %0, i32 noundef %1, ptr noundef %2, ptr noundef %3, i32 noundef %4, i32 noundef %5, ptr noundef %6) #0 {
  %8 = alloca ptr, align 8
  %9 = alloca i32, align 4
  %10 = alloca ptr, align 8
  %11 = alloca ptr, align 8
  %12 = alloca i32, align 4
  %13 = alloca i32, align 4
  %14 = alloca ptr, align 8
  %15 = alloca ptr, align 8
  %16 = alloca ptr, align 8
  %17 = alloca i32, align 4
  %18 = alloca i32, align 4
  %19 = alloca ptr, align 8
  store ptr %0, ptr %8, align 8
  store i32 %1, ptr %9, align 4
  store ptr %2, ptr %10, align 8
  store ptr %3, ptr %11, align 8
  store i32 %4, ptr %12, align 4
  store i32 %5, ptr %13, align 4
  store ptr %6, ptr %14, align 8
  call void @llvm.lifetime.start.p0(i64 8, ptr %15) #11
  call void @llvm.lifetime.start.p0(i64 8, ptr %16) #11
  call void @llvm.lifetime.start.p0(i64 4, ptr %17) #11
  %20 = load i32, ptr %9, align 4
  store i32 %20, ptr %17, align 4
  call void @llvm.lifetime.start.p0(i64 4, ptr %18) #11
  call void @llvm.lifetime.start.p0(i64 8, ptr %19) #11
  %21 = load ptr, ptr %8, align 8
  %22 = load i32, ptr %9, align 4
  %23 = load ptr, ptr %10, align 8
  %24 = load ptr, ptr %11, align 8
  %25 = load i32, ptr @hf_per_sequence_of_length, align 4
  %26 = call i32 @dissect_per_length_determinant(ptr noundef %21, i32 noundef %22, ptr noundef %23, ptr noundef %24, i32 noundef %25, ptr noundef %18, ptr noundef null)
  store i32 %26, ptr %9, align 4
  %27 = load i32, ptr %12, align 4
  %28 = call ptr @proto_registrar_get_nth(i32 noundef %27)
  store ptr %28, ptr %19, align 8
  %29 = load ptr, ptr %19, align 8
  %30 = getelementptr inbounds nuw %struct._header_field_info, ptr %29, i32 0, i32 2
  %31 = load i32, ptr %30, align 8
  %32 = icmp eq i32 %31, 3
  br i1 %32, label %78, label %33

33:                                               ; preds = %7
  %34 = load ptr, ptr %19, align 8
  %35 = getelementptr inbounds nuw %struct._header_field_info, ptr %34, i32 0, i32 2
  %36 = load i32, ptr %35, align 8
  %37 = icmp eq i32 %36, 4
  br i1 %37, label %78, label %38

38:                                               ; preds = %33
  %39 = load ptr, ptr %19, align 8
  %40 = getelementptr inbounds nuw %struct._header_field_info, ptr %39, i32 0, i32 2
  %41 = load i32, ptr %40, align 8
  %42 = icmp eq i32 %41, 5
  br i1 %42, label %78, label %43

43:                                               ; preds = %38
  %44 = load ptr, ptr %19, align 8
  %45 = getelementptr inbounds nuw %struct._header_field_info, ptr %44, i32 0, i32 2
  %46 = load i32, ptr %45, align 8
  %47 = icmp eq i32 %46, 6
  br i1 %47, label %78, label %48

48:                                               ; preds = %43
  %49 = load ptr, ptr %19, align 8
  %50 = getelementptr inbounds nuw %struct._header_field_info, ptr %49, i32 0, i32 2
  %51 = load i32, ptr %50, align 8
  %52 = icmp eq i32 %51, 7
  br i1 %52, label %78, label %53

53:                                               ; preds = %48
  %54 = load ptr, ptr %19, align 8
  %55 = getelementptr inbounds nuw %struct._header_field_info, ptr %54, i32 0, i32 2
  %56 = load i32, ptr %55, align 8
  %57 = icmp eq i32 %56, 35
  br i1 %57, label %78, label %58

58:                                               ; preds = %53
  %59 = load ptr, ptr %19, align 8
  %60 = getelementptr inbounds nuw %struct._header_field_info, ptr %59, i32 0, i32 2
  %61 = load i32, ptr %60, align 8
  %62 = icmp eq i32 %61, 8
  br i1 %62, label %78, label %63

63:                                               ; preds = %58
  %64 = load ptr, ptr %19, align 8
  %65 = getelementptr inbounds nuw %struct._header_field_info, ptr %64, i32 0, i32 2
  %66 = load i32, ptr %65, align 8
  %67 = icmp eq i32 %66, 9
  br i1 %67, label %78, label %68

68:                                               ; preds = %63
  %69 = load ptr, ptr %19, align 8
  %70 = getelementptr inbounds nuw %struct._header_field_info, ptr %69, i32 0, i32 2
  %71 = load i32, ptr %70, align 8
  %72 = icmp eq i32 %71, 10
  br i1 %72, label %78, label %73

73:                                               ; preds = %68
  %74 = load ptr, ptr %19, align 8
  %75 = getelementptr inbounds nuw %struct._header_field_info, ptr %74, i32 0, i32 2
  %76 = load i32, ptr %75, align 8
  %77 = icmp eq i32 %76, 11
  br i1 %77, label %78, label %90

78:                                               ; preds = %73, %68, %63, %58, %53, %48, %43, %38, %33, %7
  %79 = load ptr, ptr %11, align 8
  %80 = load i32, ptr %12, align 4
  %81 = load ptr, ptr %8, align 8
  %82 = load i32, ptr %17, align 4
  %83 = lshr i32 %82, 3
  %84 = load i32, ptr %18, align 4
  %85 = call ptr @proto_tree_add_uint(ptr noundef %79, i32 noundef %80, ptr noundef %81, i32 noundef %83, i32 noundef 0, i32 noundef %84)
  store ptr %85, ptr %15, align 8
  %86 = load ptr, ptr %15, align 8
  %87 = load i32, ptr %18, align 4
  %88 = icmp eq i32 %87, 1
  %89 = select i1 %88, ptr @.str.9, ptr @.str.10
  call void (ptr, ptr, ...) @proto_item_append_text(ptr noundef %86, ptr noundef %89)
  br label %97

90:                                               ; preds = %73
  %91 = load ptr, ptr %11, align 8
  %92 = load i32, ptr %12, align 4
  %93 = load ptr, ptr %8, align 8
  %94 = load i32, ptr %17, align 4
  %95 = lshr i32 %94, 3
  %96 = call ptr @proto_tree_add_item(ptr noundef %91, i32 noundef %92, ptr noundef %93, i32 noundef %95, i32 noundef 0, i32 noundef 0)
  store ptr %96, ptr %15, align 8
  br label %97

97:                                               ; preds = %90, %78
  %98 = load ptr, ptr %15, align 8
  %99 = load i32, ptr %13, align 4
  %100 = call ptr @proto_item_add_subtree(ptr noundef %98, i32 noundef %99)
  store ptr %100, ptr %16, align 8
  %101 = load ptr, ptr %8, align 8
  %102 = load i32, ptr %9, align 4
  %103 = load ptr, ptr %10, align 8
  %104 = load ptr, ptr %16, align 8
  %105 = load ptr, ptr %14, align 8
  %106 = getelementptr inbounds nuw %struct._per_sequence_t, ptr %105, i32 0, i32 3
  %107 = load ptr, ptr %106, align 8
  %108 = load ptr, ptr %14, align 8
  %109 = getelementptr inbounds nuw %struct._per_sequence_t, ptr %108, i32 0, i32 0
  %110 = load ptr, ptr %109, align 8
  %111 = load i32, ptr %110, align 4
  %112 = load i32, ptr %18, align 4
  %113 = call i32 @dissect_per_sequence_of_helper(ptr noundef %101, i32 noundef %102, ptr noundef %103, ptr noundef %104, ptr noundef %107, i32 noundef %111, i32 noundef %112)
  store i32 %113, ptr %9, align 4
  %114 = load ptr, ptr %15, align 8
  %115 = load i32, ptr %9, align 4
  %116 = lshr i32 %115, 3
  %117 = load i32, ptr %17, align 4
  %118 = lshr i32 %117, 3
  %119 = icmp ne i32 %116, %118
  br i1 %119, label %120, label %126

120:                                              ; preds = %97
  %121 = load i32, ptr %9, align 4
  %122 = lshr i32 %121, 3
  %123 = load i32, ptr %17, align 4
  %124 = lshr i32 %123, 3
  %125 = sub i32 %122, %124
  br label %127

126:                                              ; preds = %97
  br label %127

127:                                              ; preds = %126, %120
  %128 = phi i32 [ %125, %120 ], [ 1, %126 ]
  call void @proto_item_set_len(ptr noundef %114, i32 noundef %128)
  %129 = load i32, ptr %9, align 4
  call void @llvm.lifetime.end.p0(i64 8, ptr %19) #11
  call void @llvm.lifetime.end.p0(i64 4, ptr %18) #11
  call void @llvm.lifetime.end.p0(i64 4, ptr %17) #11
  call void @llvm.lifetime.end.p0(i64 8, ptr %16) #11
  call void @llvm.lifetime.end.p0(i64 8, ptr %15) #11
  ret i32 %129
}