; Function Attrs: null_pointer_is_valid sspstrong uwtable
define i32 @dissect_per_sequence_of(ptr noundef %0, i32 noundef %1, ptr noundef %2, ptr noundef %3, i32 noundef %4, i32 noundef %5, ptr noundef readonly captures(none) %6) local_unnamed_addr #0 {
  %8 = alloca i32, align 4
  call void @llvm.lifetime.start.p0(i64 4, ptr nonnull %8) #13
  %9 = load i32, ptr @hf_per_sequence_of_length, align 4
  %10 = call i32 @dissect_per_length_determinant(ptr noundef %0, i32 noundef %1, ptr noundef %2, ptr noundef %3, i32 noundef %9, ptr noundef nonnull %8, ptr noundef null)
  %11 = call ptr @proto_registrar_get_nth(i32 noundef %4)
  %12 = getelementptr inbounds nuw i8, ptr %11, i64 16
  %13 = load i32, ptr %12, align 8
  switch i32 %13, label %21 [
    i32 3, label %14
    i32 4, label %14
    i32 5, label %14
    i32 6, label %14
    i32 7, label %14
    i32 35, label %14
    i32 8, label %14
    i32 9, label %14
    i32 10, label %14
    i32 11, label %14
  ]

14:                                               ; preds = %7, %7, %7, %7, %7, %7, %7, %7, %7, %7
  %15 = lshr i32 %1, 3
  %16 = load i32, ptr %8, align 4
  %17 = call ptr @proto_tree_add_uint(ptr noundef %3, i32 noundef %4, ptr noundef %0, i32 noundef %15, i32 noundef 0, i32 noundef %16)
  %18 = load i32, ptr %8, align 4
  %19 = icmp eq i32 %18, 1
  %20 = select i1 %19, ptr @.str.9, ptr @.str.10
  call void (ptr, ptr, ...) @proto_item_append_text(ptr noundef %17, ptr noundef nonnull %20)
  br label %24

21:                                               ; preds = %7
  %22 = lshr i32 %1, 3
  %23 = call ptr @proto_tree_add_item(ptr noundef %3, i32 noundef %4, ptr noundef %0, i32 noundef %22, i32 noundef 0, i32 noundef 0)
  br label %24

24:                                               ; preds = %21, %14
  %.pre-phi = phi i32 [ %22, %21 ], [ %15, %14 ]
  %.0 = phi ptr [ %23, %21 ], [ %17, %14 ]
  %25 = call ptr @proto_item_add_subtree(ptr noundef %.0, i32 noundef %5)
  %26 = getelementptr inbounds nuw i8, ptr %6, i64 16
  %27 = load ptr, ptr %26, align 8
  %28 = load ptr, ptr %6, align 8
  %29 = load i32, ptr %28, align 4
  %30 = load i32, ptr %8, align 4
  %31 = call fastcc i32 @dissect_per_sequence_of_helper(ptr noundef %0, i32 noundef %10, ptr noundef %2, ptr noundef %25, ptr noundef %27, i32 noundef %29, i32 noundef %30)
  %32 = lshr i32 %31, 3
  %.not = icmp eq i32 %32, %.pre-phi
  %33 = sub nsw i32 %32, %.pre-phi
  %spec.select = select i1 %.not, i32 1, i32 %33
  call void @proto_item_set_len(ptr noundef %.0, i32 noundef %spec.select)
  call void @llvm.lifetime.end.p0(i64 4, ptr nonnull %8) #13
  ret i32 %31
}